; Function Attrs: nounwind uwtable
define internal void @SDL_MouseRelativeSpeedScaleChanged(ptr noundef writeonly captures(none) initializes((208, 209), (212, 216)) %0, ptr readnone captures(none) %1, ptr readnone captures(none) %2, ptr noundef %3) #0 {
  %.not = icmp eq ptr %3, null
  br i1 %.not, label %11, label %5

5:                                                ; preds = %4
  %6 = load i8, ptr %3, align 1
  %.not8 = icmp eq i8 %6, 0
  br i1 %.not8, label %11, label %7

7:                                                ; preds = %5
  %8 = getelementptr inbounds nuw i8, ptr %0, i64 208
  store i8 1, ptr %8, align 8
  %9 = tail call double @SDL_atof_REAL(ptr noundef nonnull %3) #13
  %10 = fptrunc double %9 to float
  br label %13

11:                                               ; preds = %5, %4
  %12 = getelementptr inbounds nuw i8, ptr %0, i64 208
  store i8 0, ptr %12, align 8
  br label %13

13:                                               ; preds = %11, %7
  %.sink = phi float [ 1.000000e+00, %11 ], [ %10, %7 ]
  %14 = getelementptr inbounds nuw i8, ptr %0, i64 212
  store float %.sink, ptr %14, align 4
  ret void
}